target datalayout = "e-m:e-p270:32:32-p271:32:32-p272:64:64-i64:64-i128:128-f80:128-n8:16:32:64-S128"
target triple = "x86_64-pc-linux-gnu"

%struct.LodePNGInfo = type { i32, i32, i32, %struct.LodePNGColorMode, i32, i32, i32, i32, i64, ptr, ptr, i64, ptr, ptr, ptr, ptr, i32, ptr, i32, i32, %struct.LodePNGTime, i32, i32, i32, i32, i32, i32, i32, i32, i32, i32, i32, i32, i32, i32, i32, i32, i32, i32, ptr, ptr, i32, i32, i32, i32, i32, i32, i32, i32, i32, i32, i32, i32, i32, i32, i32, i32, i32, i32, i32, i32, i32, i32, i32, i32, i32, [3 x ptr], [3 x i64] }
%struct.LodePNGColorMode = type { i32, i32, ptr, i64, i32, i32, i32, i32 }
%struct.LodePNGTime = type { i32, i32, i32, i32, i32, i32 }
%"struct.lodepng::LodePNGICCCurve" = type { i32, ptr, i64, float, float, float, float, float, float, float }
%"struct.lodepng::LodePNGICC" = type { i32, i32, i32, i32, [3 x float], i32, [9 x float], i32, [3 x float], i32, [3 x float], [3 x float], [3 x float], i32, [3 x %"struct.lodepng::LodePNGICCCurve"] }

; Function Attrs: mustprogress uwtable
define internal void @_ZN7lodepngL24convertToXYZ_gamma_tableEPfmmPK11LodePNGInfojPKNS_10LodePNGICCE(ptr noundef %0, i64 noundef %1, i64 noundef %2, ptr noundef %3, i32 noundef %4, ptr noundef %5) #0 {
  %7 = alloca ptr, align 8
  %8 = alloca i64, align 8
  %9 = alloca i64, align 8
  %10 = alloca ptr, align 8
  %11 = alloca i32, align 4
  %12 = alloca ptr, align 8
  %13 = alloca i64, align 8
  %14 = alloca float, align 4
  %15 = alloca float, align 4
  %16 = alloca float, align 4
  %17 = alloca float, align 4
  %18 = alloca float, align 4
  store ptr %0, ptr %7, align 8, !tbaa !87
  store i64 %1, ptr %8, align 8, !tbaa !15
  store i64 %2, ptr %9, align 8, !tbaa !15
  store ptr %3, ptr %10, align 8, !tbaa !92
  store i32 %4, ptr %11, align 4, !tbaa !9
  store ptr %5, ptr %12, align 8, !tbaa !81
  call void @llvm.lifetime.start.p0(i64 8, ptr %13) #19
  call void @llvm.lifetime.start.p0(i64 4, ptr %14) #19
  %19 = load i64, ptr %8, align 8, !tbaa !15
  %20 = sub i64 %19, 1
  %21 = uitofp i64 %20 to float
  %22 = fdiv float 1.000000e+00, %21
  store float %22, ptr %14, align 4, !tbaa !100
  %23 = load i32, ptr %11, align 4, !tbaa !9
  %24 = icmp ne i32 %23, 0
  br i1 %24, label %25, label %48

25:                                               ; preds = %6
  store i64 0, ptr %13, align 8, !tbaa !15
  br label %26

26:                                               ; preds = %44, %25
  %27 = load i64, ptr %13, align 8, !tbaa !15
  %28 = load i64, ptr %8, align 8, !tbaa !15
  %29 = icmp ult i64 %27, %28
  br i1 %29, label %30, label %47

30:                                               ; preds = %26
  call void @llvm.lifetime.start.p0(i64 4, ptr %15) #19
  %31 = load i64, ptr %13, align 8, !tbaa !15
  %32 = uitofp i64 %31 to float
  %33 = load float, ptr %14, align 4, !tbaa !100
  %34 = fmul float %32, %33
  store float %34, ptr %15, align 4, !tbaa !100
  %35 = load ptr, ptr %12, align 8, !tbaa !81
  %36 = getelementptr inbounds nuw %"struct.lodepng::LodePNGICC", ptr %35, i32 0, i32 14
  %37 = load i64, ptr %9, align 8, !tbaa !15
  %38 = getelementptr inbounds nuw [3 x %"struct.lodepng::LodePNGICCCurve"], ptr %36, i64 0, i64 %37
  %39 = load float, ptr %15, align 4, !tbaa !100
  %40 = call noundef float @_ZN7lodepngL13iccForwardTRCEPKNS_15LodePNGICCCurveEf(ptr noundef %38, float noundef %39)
  %41 = load ptr, ptr %7, align 8, !tbaa !87
  %42 = load i64, ptr %13, align 8, !tbaa !15
  %43 = getelementptr inbounds nuw float, ptr %41, i64 %42
  store float %40, ptr %43, align 4, !tbaa !100
  call void @llvm.lifetime.end.p0(i64 4, ptr %15) #19
  br label %44

44:                                               ; preds = %30
  %45 = load i64, ptr %13, align 8, !tbaa !15
  %46 = add i64 %45, 1
  store i64 %46, ptr %13, align 8, !tbaa !15
  br label %26, !llvm.loop !121

47:                                               ; preds = %26
  br label %136

48:                                               ; preds = %6
  %49 = load ptr, ptr %10, align 8, !tbaa !92
  %50 = getelementptr inbounds nuw %struct.LodePNGInfo, ptr %49, i32 0, i32 25
  %51 = load i32, ptr %50, align 8, !tbaa !122
  %52 = icmp ne i32 %51, 0
  br i1 %52, label %53, label %106

53:                                               ; preds = %48
  %54 = load ptr, ptr %10, align 8, !tbaa !92
  %55 = getelementptr inbounds nuw %struct.LodePNGInfo, ptr %54, i32 0, i32 36
  %56 = load i32, ptr %55, align 4, !tbaa !123
  %57 = icmp ne i32 %56, 0
  br i1 %57, label %106, label %58

58:                                               ; preds = %53
  %59 = load ptr, ptr %10, align 8, !tbaa !92
  %60 = getelementptr inbounds nuw %struct.LodePNGInfo, ptr %59, i32 0, i32 26
  %61 = load i32, ptr %60, align 4, !tbaa !124
  %62 = icmp eq i32 %61, 100000
  br i1 %62, label %63, label %80

63:                                               ; preds = %58
  store i64 0, ptr %13, align 8, !tbaa !15
  br label %64

64:                                               ; preds = %76, %63
  %65 = load i64, ptr %13, align 8, !tbaa !15
  %66 = load i64, ptr %8, align 8, !tbaa !15
  %67 = icmp ult i64 %65, %66
  br i1 %67, label %68, label %79

68:                                               ; preds = %64
  %69 = load i64, ptr %13, align 8, !tbaa !15
  %70 = uitofp i64 %69 to float
  %71 = load float, ptr %14, align 4, !tbaa !100
  %72 = fmul float %70, %71
  %73 = load ptr, ptr %7, align 8, !tbaa !87
  %74 = load i64, ptr %13, align 8, !tbaa !15
  %75 = getelementptr inbounds nuw float, ptr %73, i64 %74
  store float %72, ptr %75, align 4, !tbaa !100
  br label %76

76:                                               ; preds = %68
  %77 = load i64, ptr %13, align 8, !tbaa !15
  %78 = add i64 %77, 1
  store i64 %78, ptr %13, align 8, !tbaa !15
  br label %64, !llvm.loop !125

79:                                               ; preds = %64
  br label %105

80:                                               ; preds = %58
  call void @llvm.lifetime.start.p0(i64 4, ptr %16) #19
  %81 = load ptr, ptr %10, align 8, !tbaa !92
  %82 = getelementptr inbounds nuw %struct.LodePNGInfo, ptr %81, i32 0, i32 26
  %83 = load i32, ptr %82, align 4, !tbaa !124
  %84 = uitofp i32 %83 to float
  %85 = fdiv float 1.000000e+05, %84
  store float %85, ptr %16, align 4, !tbaa !100
  store i64 0, ptr %13, align 8, !tbaa !15
  br label %86

86:                                               ; preds = %101, %80
  %87 = load i64, ptr %13, align 8, !tbaa !15
  %88 = load i64, ptr %8, align 8, !tbaa !15
  %89 = icmp ult i64 %87, %88
  br i1 %89, label %90, label %104

90:                                               ; preds = %86
  call void @llvm.lifetime.start.p0(i64 4, ptr %17) #19
  %91 = load i64, ptr %13, align 8, !tbaa !15
  %92 = uitofp i64 %91 to float
  %93 = load float, ptr %14, align 4, !tbaa !100
  %94 = fmul float %92, %93
  store float %94, ptr %17, align 4, !tbaa !100
  %95 = load float, ptr %17, align 4, !tbaa !100
  %96 = load float, ptr %16, align 4, !tbaa !100
  %97 = call noundef float @_ZN7lodepngL12lodepng_powfEff(float noundef %95, float noundef %96)
  %98 = load ptr, ptr %7, align 8, !tbaa !87
  %99 = load i64, ptr %13, align 8, !tbaa !15
  %100 = getelementptr inbounds nuw float, ptr %98, i64 %99
  store float %97, ptr %100, align 4, !tbaa !100
  call void @llvm.lifetime.end.p0(i64 4, ptr %17) #19
  br label %101

101:                                              ; preds = %90
  %102 = load i64, ptr %13, align 8, !tbaa !15
  %103 = add i64 %102, 1
  store i64 %103, ptr %13, align 8, !tbaa !15
  br label %86, !llvm.loop !126

104:                                              ; preds = %86
  call void @llvm.lifetime.end.p0(i64 4, ptr %16) #19
  br label %105

105:                                              ; preds = %104, %79
  br label %135

106:                                              ; preds = %53, %48
  store i64 0, ptr %13, align 8, !tbaa !15
  br label %107

107:                                              ; preds = %131, %106
  %108 = load i64, ptr %13, align 8, !tbaa !15
  %109 = load i64, ptr %8, align 8, !tbaa !15
  %110 = icmp ult i64 %108, %109
  br i1 %110, label %111, label %134

111:                                              ; preds = %107
  call void @llvm.lifetime.start.p0(i64 4, ptr %18) #19
  %112 = load i64, ptr %13, align 8, !tbaa !15
  %113 = uitofp i64 %112 to float
  %114 = load float, ptr %14, align 4, !tbaa !100
  %115 = fmul float %113, %114
  store float %115, ptr %18, align 4, !tbaa !100
  %116 = load float, ptr %18, align 4, !tbaa !100
  %117 = fcmp olt float %116, 0x3FA4B5DCC0000000
  br i1 %117, label %118, label %121

118:                                              ; preds = %111
  %119 = load float, ptr %18, align 4, !tbaa !100
  %120 = fdiv float %119, 0x4029D70A40000000
  br label %126

121:                                              ; preds = %111
  %122 = load float, ptr %18, align 4, !tbaa !100
  %123 = fadd float %122, 0x3FAC28F5C0000000
  %124 = fdiv float %123, 0x3FF0E147A0000000
  %125 = call noundef float @_ZN7lodepngL12lodepng_powfEff(float noundef %124, float noundef 0x4003333340000000)
  br label %126

126:                                              ; preds = %121, %118
  %127 = phi float [ %120, %118 ], [ %125, %121 ]
  %128 = load ptr, ptr %7, align 8, !tbaa !87
  %129 = load i64, ptr %13, align 8, !tbaa !15
  %130 = getelementptr inbounds nuw float, ptr %128, i64 %129
  store float %127, ptr %130, align 4, !tbaa !100
  call void @llvm.lifetime.end.p0(i64 4, ptr %18) #19
  br label %131

131:                                              ; preds = %126
  %132 = load i64, ptr %13, align 8, !tbaa !15
  %133 = add i64 %132, 1
  store i64 %133, ptr %13, align 8, !tbaa !15
  br label %107, !llvm.loop !127

134:                                              ; preds = %107
  br label %135

135:                                              ; preds = %134, %105
  br label %136

136:                                              ; preds = %135, %47
  call void @llvm.lifetime.end.p0(i64 4, ptr %14) #19
  call void @llvm.lifetime.end.p0(i64 8, ptr %13) #19
  ret void
}