; Function Attrs: mustprogress nofree nosync nounwind memory(read, argmem: readwrite, inaccessiblemem: none) uwtable
define internal fastcc void @_ZN7lodepngL24convertToXYZ_gamma_tableEPfmmPK11LodePNGInfojPKNS_10LodePNGICCE(ptr noundef writeonly captures(none) %0, i64 noundef range(i64 256, 65537) %1, i64 noundef range(i64 0, 3) %2, ptr noundef readonly captures(none) %3, i32 noundef range(i32 0, 2) %4, ptr noundef nonnull readonly captures(none) %5) unnamed_addr #10 {
  %7 = add nsw i64 %1, -1
  %8 = uitofp nneg i64 %7 to float
  %9 = fdiv float 1.000000e+00, %8
  %.not = icmp eq i32 %4, 0
  br i1 %.not, label %18, label %.preheader48

.preheader48:                                     ; preds = %6
  %10 = getelementptr inbounds nuw i8, ptr %5, i64 128
  %11 = getelementptr inbounds nuw [3 x %"struct.lodepng::LodePNGICCCurve"], ptr %10, i64 0, i64 %2
  br label %12

12:                                               ; preds = %.preheader48, %12
  %.050 = phi i64 [ 0, %.preheader48 ], [ %17, %12 ]
  %13 = uitofp nneg i64 %.050 to float
  %14 = fmul float %9, %13
  %15 = tail call fastcc noundef float @_ZN7lodepngL13iccForwardTRCEPKNS_15LodePNGICCCurveEf(ptr noundef %11, float noundef %14)
  %16 = getelementptr inbounds nuw float, ptr %0, i64 %.050
  store float %15, ptr %16, align 4, !tbaa !79
  %17 = add nuw nsw i64 %.050, 1
  %exitcond.not = icmp eq i64 %17, %1
  br i1 %exitcond.not, label %.loopexit, label %12, !llvm.loop !80

18:                                               ; preds = %6
  %19 = getelementptr inbounds nuw i8, ptr %3, i64 200
  %20 = load i32, ptr %19, align 8, !tbaa !99
  %.not44 = icmp eq i32 %20, 0
  br i1 %.not44, label %.preheader66, label %21

.preheader66:                                     ; preds = %21, %18
  br label %41

21:                                               ; preds = %18
  %22 = getelementptr inbounds nuw i8, ptr %3, i64 244
  %23 = load i32, ptr %22, align 4, !tbaa !100
  %.not45 = icmp eq i32 %23, 0
  br i1 %.not45, label %24, label %.preheader66

24:                                               ; preds = %21
  %25 = getelementptr inbounds nuw i8, ptr %3, i64 204
  %26 = load i32, ptr %25, align 4, !tbaa !101
  %27 = icmp eq i32 %26, 100000
  br i1 %27, label %.preheader, label %32

.preheader:                                       ; preds = %24, %.preheader
  %.152 = phi i64 [ %31, %.preheader ], [ 0, %24 ]
  %28 = uitofp nneg i64 %.152 to float
  %29 = fmul float %9, %28
  %30 = getelementptr inbounds nuw float, ptr %0, i64 %.152
  store float %29, ptr %30, align 4, !tbaa !79
  %31 = add nuw nsw i64 %.152, 1
  %exitcond58.not = icmp eq i64 %31, %1
  br i1 %exitcond58.not, label %.loopexit, label %.preheader, !llvm.loop !102

32:                                               ; preds = %24
  %33 = uitofp i32 %26 to float
  %34 = fdiv float 1.000000e+05, %33
  br label %35

35:                                               ; preds = %32, %35
  %.251 = phi i64 [ 0, %32 ], [ %40, %35 ]
  %36 = uitofp nneg i64 %.251 to float
  %37 = fmul float %9, %36
  %38 = tail call fastcc noundef float @_ZN7lodepngL12lodepng_powfEff(float noundef %37, float noundef %34)
  %39 = getelementptr inbounds nuw float, ptr %0, i64 %.251
  store float %38, ptr %39, align 4, !tbaa !79
  %40 = add nuw nsw i64 %.251, 1
  %exitcond57.not = icmp eq i64 %40, %1
  br i1 %exitcond57.not, label %.loopexit, label %35, !llvm.loop !103

41:                                               ; preds = %.preheader66, %51
  %.353 = phi i64 [ %54, %51 ], [ 0, %.preheader66 ]
  %42 = uitofp nneg i64 %.353 to float
  %43 = fmul float %9, %42
  %44 = fcmp olt float %43, 0x3FA4B5DCC0000000
  br i1 %44, label %45, label %47

45:                                               ; preds = %41
  %46 = fdiv float %43, 0x4029D70A40000000
  br label %51

47:                                               ; preds = %41
  %48 = fadd float %43, 0x3FAC28F5C0000000
  %49 = fdiv float %48, 0x3FF0E147A0000000
  %50 = tail call fastcc noundef float @_ZN7lodepngL12lodepng_powfEff(float noundef %49, float noundef 0x4003333340000000)
  br label %51

51:                                               ; preds = %47, %45
  %52 = phi float [ %46, %45 ], [ %50, %47 ]
  %53 = getelementptr inbounds nuw float, ptr %0, i64 %.353
  store float %52, ptr %53, align 4, !tbaa !79
  %54 = add nuw nsw i64 %.353, 1
  %exitcond59.not = icmp eq i64 %54, %1
  br i1 %exitcond59.not, label %.loopexit, label %41, !llvm.loop !104

.loopexit:                                        ; preds = %12, %35, %.preheader, %51
  ret void
}